target datalayout = "e-m:e-p270:32:32-p271:32:32-p272:64:64-i64:64-i128:128-f80:128-n8:16:32:64-S128"
target triple = "x86_64-pc-linux-gnu"

%struct.HWMapDescriptor = type { ptr, ptr, ptr, ptr }

; Function Attrs: nounwind uwtable
define internal void @ff_hwframe_unmap(ptr noundef %0, ptr noundef %1) #0 {
  %3 = alloca ptr, align 8
  %4 = alloca ptr, align 8
  %5 = alloca ptr, align 8
  %6 = alloca ptr, align 8
  store ptr %0, ptr %3, align 8, !tbaa !34
  store ptr %1, ptr %4, align 8, !tbaa !4
  call void @llvm.lifetime.start.p0(i64 8, ptr %5) #5
  %7 = load ptr, ptr %4, align 8, !tbaa !4
  store ptr %7, ptr %5, align 8, !tbaa !95
  call void @llvm.lifetime.start.p0(i64 8, ptr %6) #5
  %8 = load ptr, ptr %3, align 8, !tbaa !34
  store ptr %8, ptr %6, align 8, !tbaa !43
  %9 = load ptr, ptr %5, align 8, !tbaa !95
  %10 = getelementptr inbounds nuw %struct.HWMapDescriptor, ptr %9, i32 0, i32 2
  %11 = load ptr, ptr %10, align 8, !tbaa !121
  %12 = icmp ne ptr %11, null
  br i1 %12, label %13, label %19

13:                                               ; preds = %2
  %14 = load ptr, ptr %5, align 8, !tbaa !95
  %15 = getelementptr inbounds nuw %struct.HWMapDescriptor, ptr %14, i32 0, i32 2
  %16 = load ptr, ptr %15, align 8, !tbaa !121
  %17 = load ptr, ptr %6, align 8, !tbaa !43
  %18 = load ptr, ptr %5, align 8, !tbaa !95
  call void %16(ptr noundef %17, ptr noundef %18)
  br label %19

19:                                               ; preds = %13, %2
  %20 = load ptr, ptr %5, align 8, !tbaa !95
  %21 = getelementptr inbounds nuw %struct.HWMapDescriptor, ptr %20, i32 0, i32 0
  call void @av_frame_free(ptr noundef %21)
  %22 = load ptr, ptr %5, align 8, !tbaa !95
  %23 = getelementptr inbounds nuw %struct.HWMapDescriptor, ptr %22, i32 0, i32 1
  call void @av_buffer_unref(ptr noundef %23)
  %24 = load ptr, ptr %5, align 8, !tbaa !95
  call void @av_free(ptr noundef %24)
  call void @llvm.lifetime.end.p0(i64 8, ptr %6) #5
  call void @llvm.lifetime.end.p0(i64 8, ptr %5) #5
  ret void
}