; Function Attrs: nounwind uwtable
define internal void @ff_hwframe_unmap(ptr noundef %0, ptr noundef %1) #5 {
  %3 = getelementptr inbounds nuw i8, ptr %1, i64 16
  %4 = load ptr, ptr %3, align 8, !tbaa !110
  %.not = icmp eq ptr %4, null
  br i1 %.not, label %6, label %5

5:                                                ; preds = %2
  tail call void %4(ptr noundef %0, ptr noundef nonnull %1) #11
  br label %6

6:                                                ; preds = %5, %2
  tail call void @av_frame_free(ptr noundef nonnull %1) #11
  %7 = getelementptr inbounds nuw i8, ptr %1, i64 8
  tail call void @av_buffer_unref(ptr noundef nonnull %7) #11
  tail call void @av_free(ptr noundef nonnull %1) #11
  ret void
}